; Function Attrs: mustprogress uwtable
define hidden noundef ptr @_ZN7datalog21bound_relation_plugin24mk_filter_interpreted_fnERKNS_13relation_baseEP3app(ptr nonnull readnone align 8 captures(none) %0, ptr noundef nonnull readonly align 8 captures(none) dereferenceable(28) %1, ptr noundef %2) unnamed_addr #3 align 2 {
  %4 = tail call noalias noundef ptr @_ZN6memory8allocateEm(i64 noundef 80)
  %5 = getelementptr inbounds nuw i8, ptr %1, i64 8
  %6 = load ptr, ptr %5, align 8, !tbaa !54
  %7 = getelementptr inbounds nuw i8, ptr %6, i64 24
  %8 = load ptr, ptr %7, align 8, !tbaa !19
  %9 = tail call noundef nonnull align 8 dereferenceable(976) ptr @_ZN7datalog32get_ast_manager_from_rel_managerERKNS_16relation_managerE(ptr noundef nonnull align 8 dereferenceable(200) %8)
  tail call void @_ZN7datalog21bound_relation_plugin21filter_interpreted_fnC2ER11ast_managerP3app(ptr noundef nonnull align 8 dereferenceable(76) %4, ptr noundef nonnull align 8 dereferenceable(976) %9, ptr noundef %2)
  ret ptr %4
}